ccopy_reg
_reconstructor
p0
(c__main__
Vocabulary
p1
c__builtin__
object
p2
Ntp3
Rp4
(dp5
S'idx2word'
p6
(dp7
I0
S'<pad>'
p8
sI1
S'<start>'
p9
sI2
S'<end>'
p10
sI3
S'<unk>'
p11
sI4
S'vi'
p12
sI5
S'44.4%'
p13
sI6
S'square'
p14
sI7
S'slower'
p15
sI8
S'ad'
p16
sI9
S'88.8%'
p17
sI10
S'6.5%'
p18
sI11
S'cb'
p19
sI12
S'image'
p20
sI13
S'11.1%'
p21
sI14
S'eo'
p22
sI15
S'25%'
p23
sI16
S'60%'
p24
sI17
S'right'
p25
sI18
S'15%'
p26
sI19
S'per'
p27
sI20
S'55%'
p28
sI21
S'70%'
p29
sI22
S'kx'
p30
sI23
S'sel'
p31
sI24
S'45%'
p32
sI25
S'31.5%'
p33
sI26
S'!'
p34
sI27
S'40%'
p35
sI28
S'slow'
p36
sI29
S'from'
p37
sI30
S'tx'
p38
sI31
S'to'
p39
sI32
S's3'
p40
sI33
S'top'
p41
sI34
S'50%'
p42
sI35
S'28%'
p43
sI36
S'ry'
p44
sI37
S'fast'
p45
sI38
S'77.7%'
p46
sI39
S'1'
p47
sI40
S'0'
p48
sI41
S'66.6%'
p49
sI42
S'43.5%'
p50
sI43
S'0%'
p51
sI44
S'tf'
p52
sI45
S';'
p53
sI46
S':'
p54
sI47
S'18.5%'
p55
sI48
S'rt'
p56
sI49
S'bottom'
p57
sI50
S'v'
p58
sI51
S'@keyframes'
p59
sI52
S'10%'
p60
sI53
S'ei'
p61
sI54
S'14%'
p62
sI55
S'20%'
p63
sI56
S'75%'
p64
sI57
S'bv'
p65
sI58
S'pat'
p66
sI59
S'line'
p67
sI60
S'30%'
p68
sI61
S'h'
p69
sI62
S'center'
p70
sI63
S'atf'
p71
sI64
S'53%'
p72
sI65
S'42%'
p73
sI66
S'faster'
p74
sI67
S'r3'
p75
sI68
S'22.2%'
p76
sI69
S'43%'
p77
sI70
S't3'
p78
sI71
S'80%'
p79
sI72
S'55.5%'
p80
sI73
S'ky'
p81
sI74
S's'
p82
sI75
S'33.3%'
p83
sI76
S'text'
p84
sI77
S'90%'
p85
sI78
S'sc'
p86
sI79
S'65%'
p87
sI80
S'{'
p88
sI81
S'left'
p89
sI82
S'}'
p90
sI83
S'eio'
p91
sI84
S'op'
p92
ssS'word2idx'
p93
(dp94
g13
I5
sg14
I6
sg15
I7
sg16
I8
sg17
I9
sg12
I4
sg20
I12
sg22
I14
sg23
I15
sg24
I16
sg8
I0
sg25
I17
sg26
I18
sg45
I37
sg89
I81
sg28
I20
sg29
I21
sg90
I82
sg21
I13
sg32
I24
sg33
I25
sg34
I26
sg35
I27
sg31
I23
sg37
I29
sg38
I30
sg48
I40
sg40
I32
sg41
I33
sg42
I34
sg43
I35
sg44
I36
sg27
I19
sg68
I60
sg47
I39
sg39
I31
sg49
I41
sg50
I42
sg72
I64
sg19
I11
sg52
I44
sg53
I45
sg54
I46
sg9
I1
sg83
I75
sg61
I53
sg55
I47
sg51
I43
sg59
I51
sg60
I52
sg78
I70
sg18
I10
sg36
I28
sg63
I55
sg64
I56
sg77
I69
sg66
I58
sg67
I59
sg56
I48
sg46
I38
sg74
I66
sg71
I63
sg10
I2
sg73
I65
sg70
I62
sg75
I67
sg69
I61
sg87
I79
sg57
I49
sg65
I57
sg79
I71
sg80
I72
sg82
I74
sg62
I54
sg84
I76
sg91
I83
sg58
I50
sg86
I78
sg85
I77
sg81
I73
sg30
I22
sg76
I68
sg92
I84
sg88
I80
sg11
I3
ssS'idx'
p95
I85
sb.